; Function Attrs: mustprogress uwtable
define void @_ZNK6google8protobuf11MessageLite17SerializeAsStringB5cxx11Ev(ptr dead_on_unwind noalias nonnull writable sret(%"class.std::__cxx11::basic_string") align 8 %0, ptr noundef nonnull align 8 dereferenceable(16) %1) local_unnamed_addr #3 align 2 personality ptr @__gxx_personality_v0 {
  tail call void @_ZNSt7__cxx1112basic_stringIcSt11char_traitsIcESaIcEEC1Ev(ptr noundef nonnull align 8 dereferenceable(32) %0) #15
  %3 = invoke noundef zeroext i1 @_ZNK6google8protobuf11MessageLite21AppendPartialToStringEPNSt7__cxx1112basic_stringIcSt11char_traitsIcESaIcEEE(ptr noundef nonnull align 8 dereferenceable(16) %1, ptr noundef %0)
          to label %_ZNK6google8protobuf11MessageLite14AppendToStringEPNSt7__cxx1112basic_stringIcSt11char_traitsIcESaIcEEE.exit unwind label %5

_ZNK6google8protobuf11MessageLite14AppendToStringEPNSt7__cxx1112basic_stringIcSt11char_traitsIcESaIcEEE.exit: ; preds = %2
  br i1 %3, label %7, label %4

4:                                                ; preds = %_ZNK6google8protobuf11MessageLite14AppendToStringEPNSt7__cxx1112basic_stringIcSt11char_traitsIcESaIcEEE.exit
  tail call void @_ZNSt7__cxx1112basic_stringIcSt11char_traitsIcESaIcEE5clearEv(ptr noundef nonnull align 8 dereferenceable(32) %0) #15
  br label %7

5:                                                ; preds = %2
  %6 = landingpad { ptr, i32 }
          cleanup
  tail call void @_ZNSt7__cxx1112basic_stringIcSt11char_traitsIcESaIcEED1Ev(ptr noundef nonnull align 8 dereferenceable(32) %0) #15
  resume { ptr, i32 } %6

7:                                                ; preds = %_ZNK6google8protobuf11MessageLite14AppendToStringEPNSt7__cxx1112basic_stringIcSt11char_traitsIcESaIcEEE.exit, %4
  ret void
}